target datalayout = "e-m:e-p270:32:32-p271:32:32-p272:64:64-i64:64-i128:128-f80:128-n8:16:32:64-S128"
target triple = "x86_64-pc-linux-gnu"

@proto_register_gcsna.ett = internal global [3 x ptr] [ptr @ett_gcsna_msghdr, ptr @ett_gcsna_subtree, ptr @ett_gcsna_option], align 16
@.str.52 = private unnamed_addr constant [6 x i8] c"GCSNA\00", align 1
@.str.53 = private unnamed_addr constant [6 x i8] c"gcsna\00", align 1
@proto_gcsna = internal global i32 0, align 4
@gcsna_handle = internal global ptr null, align 8

; Function Attrs: null_pointer_is_valid sspstrong uwtable
define hidden void @proto_register_gcsna() #0 {
  %1 = alloca ptr, align 8
  call void @llvm.lifetime.start.p0(i64 8, ptr %1) #3
  %2 = call i32 @proto_register_protocol(ptr noundef @.str.52, ptr noundef @.str.52, ptr noundef @.str.53)
  store i32 %2, ptr @proto_gcsna, align 4
  %3 = load i32, ptr @proto_gcsna, align 4
  %4 = call ptr @register_dissector(ptr noundef @.str.53, ptr noundef @dissect_gcsna, i32 noundef %3)
  store ptr %4, ptr @gcsna_handle, align 8
  %5 = load i32, ptr @proto_gcsna, align 4
  call void @proto_register_field_array(i32 noundef %5, ptr noundef @proto_register_gcsna.hf, i32 noundef 25)
  call void @proto_register_subtree_array(ptr noundef @proto_register_gcsna.ett, i32 noundef 3)
  %6 = load i32, ptr @proto_gcsna, align 4
  %7 = call ptr @expert_register_protocol(i32 noundef %6)
  store ptr %7, ptr %1, align 8
  %8 = load ptr, ptr %1, align 8
  call void @expert_register_field_array(ptr noundef %8, ptr noundef @proto_register_gcsna.ei, i32 noundef 1)
  call void @llvm.lifetime.end.p0(i64 8, ptr %1) #3
  ret void
}